target datalayout = "e-m:e-p270:32:32-p271:32:32-p272:64:64-i64:64-i128:128-f80:128-n8:16:32:64-S128"
target triple = "x86_64-pc-linux-gnu"

%struct._address = type { i32, i32, ptr, ptr }
%struct.conversation_element = type { i32, %union.anon }
%union.anon = type { %struct._address }
%struct._packet_info = type { ptr, ptr, i32, i32, %struct.nstime_t, %struct.nstime_t, %struct.nstime_t, i8, ptr, ptr, ptr, ptr, %struct._address, %struct._address, %struct._address, %struct._address, %struct._address, %struct._address, i32, ptr, i8, [3 x i8], %struct.anon.0, i32, i32, i32, i32, ptr, i8, ptr, ptr, i16, i16, i32, i32, i16, i32, i32, ptr, ptr, ptr, i8, i8, i16, i16, i16, i32, i16, i16, ptr, ptr, ptr, ptr, ptr, i32, i32 }
%struct.nstime_t = type { i64, i32 }
%struct.anon.0 = type { i8, [3 x i8] }

; Function Attrs: null_pointer_is_valid sspstrong uwtable
define void @conversation_set_elements_by_id(ptr noundef %0, i32 noundef %1, i32 noundef %2) #0 {
  %4 = alloca ptr, align 8
  %5 = alloca i32, align 4
  %6 = alloca i32, align 4
  store ptr %0, ptr %4, align 8
  store i32 %1, ptr %5, align 4
  store i32 %2, ptr %6, align 4
  %7 = load ptr, ptr %4, align 8
  %8 = getelementptr inbounds nuw %struct._packet_info, ptr %7, i32 0, i32 51
  %9 = load ptr, ptr %8, align 8
  %10 = call noalias ptr @wmem_alloc0(ptr noundef %9, i64 noundef 64) #16
  %11 = load ptr, ptr %4, align 8
  %12 = getelementptr inbounds nuw %struct._packet_info, ptr %11, i32 0, i32 30
  store ptr %10, ptr %12, align 8
  %13 = load ptr, ptr %4, align 8
  %14 = getelementptr inbounds nuw %struct._packet_info, ptr %13, i32 0, i32 30
  %15 = load ptr, ptr %14, align 8
  %16 = getelementptr %struct.conversation_element, ptr %15, i64 0
  %17 = getelementptr inbounds nuw %struct.conversation_element, ptr %16, i32 0, i32 0
  store i32 4, ptr %17, align 8
  %18 = load i32, ptr %6, align 4
  %19 = load ptr, ptr %4, align 8
  %20 = getelementptr inbounds nuw %struct._packet_info, ptr %19, i32 0, i32 30
  %21 = load ptr, ptr %20, align 8
  %22 = getelementptr %struct.conversation_element, ptr %21, i64 0
  %23 = getelementptr inbounds nuw %struct.conversation_element, ptr %22, i32 0, i32 1
  store i32 %18, ptr %23, align 8
  %24 = load ptr, ptr %4, align 8
  %25 = getelementptr inbounds nuw %struct._packet_info, ptr %24, i32 0, i32 30
  %26 = load ptr, ptr %25, align 8
  %27 = getelementptr %struct.conversation_element, ptr %26, i64 1
  %28 = getelementptr inbounds nuw %struct.conversation_element, ptr %27, i32 0, i32 0
  store i32 0, ptr %28, align 8
  %29 = load i32, ptr %5, align 4
  %30 = load ptr, ptr %4, align 8
  %31 = getelementptr inbounds nuw %struct._packet_info, ptr %30, i32 0, i32 30
  %32 = load ptr, ptr %31, align 8
  %33 = getelementptr %struct.conversation_element, ptr %32, i64 1
  %34 = getelementptr inbounds nuw %struct.conversation_element, ptr %33, i32 0, i32 1
  store i32 %29, ptr %34, align 8
  ret void
}