; Function Attrs: null_pointer_is_valid sspstrong uwtable
define void @conversation_set_elements_by_id(ptr noundef captures(none) initializes((320, 328)) %0, i32 noundef %1, i32 noundef %2) local_unnamed_addr #0 {
  %4 = getelementptr inbounds nuw i8, ptr %0, i64 408
  %5 = load ptr, ptr %4, align 8
  %6 = tail call noalias dereferenceable_or_null(64) ptr @wmem_alloc0(ptr noundef %5, i64 noundef 64) #19
  %7 = getelementptr inbounds nuw i8, ptr %0, i64 320
  store ptr %6, ptr %7, align 8
  store i32 4, ptr %6, align 8
  %8 = getelementptr inbounds nuw i8, ptr %6, i64 8
  store i32 %2, ptr %8, align 8
  %9 = getelementptr i8, ptr %6, i64 32
  store i32 0, ptr %9, align 8
  %10 = getelementptr i8, ptr %6, i64 40
  store i32 %1, ptr %10, align 8
  ret void
}